; ModuleID = '12/193.c'
source_filename = "12/193.c"
target datalayout = "e-m:e-p270:32:32-p271:32:32-p272:64:64-i64:64-f80:128-n8:16:32:64-S128"
target triple = "x86_64-pc-linux-gnu"

@.str = private unnamed_addr constant [3 x i8] c"%d\00", align 1
@.str.1 = private unnamed_addr constant [4 x i8] c"%d\0A\00", align 1

; Function Attrs: noinline nounwind uwtable
define dso_local i32 @main() #0 {
  %1 = alloca i32, align 4
  %2 = alloca [100 x [150 x i32]], align 16
  %3 = alloca i32, align 4
  %4 = alloca i32, align 4
  %5 = alloca i32, align 4
  %6 = alloca [100 x i32], align 16
  %7 = alloca i32, align 4
  %8 = alloca i32, align 4
  %9 = alloca [100 x i32], align 16
  store i32 0, i32* %1, align 4
  store i32 0, i32* %4, align 4
  br label %10

10:                                               ; preds = %53, %0
  store i32 0, i32* %3, align 4
  br label %11

11:                                               ; preds = %37, %10
  %12 = load i32, i32* %4, align 4
  %13 = sext i32 %12 to i64
  %14 = getelementptr inbounds [100 x [150 x i32]], [100 x [150 x i32]]* %2, i64 0, i64 %13
  %15 = load i32, i32* %3, align 4
  %16 = sext i32 %15 to i64
  %17 = getelementptr inbounds [150 x i32], [150 x i32]* %14, i64 0, i64 %16
  %18 = call i32 (i8*, ...) @__isoc99_scanf(i8* getelementptr inbounds ([3 x i8], [3 x i8]* @.str, i64 0, i64 0), i32* %17)
  %19 = load i32, i32* %4, align 4
  %20 = sext i32 %19 to i64
  %21 = getelementptr inbounds [100 x [150 x i32]], [100 x [150 x i32]]* %2, i64 0, i64 %20
  %22 = getelementptr inbounds [150 x i32], [150 x i32]* %21, i64 0, i64 0
  %23 = load i32, i32* %22, align 8
  %24 = icmp eq i32 %23, -1
  br i1 %24, label %25, label %26

25:                                               ; preds = %11
  br label %40

26:                                               ; preds = %11
  %27 = load i32, i32* %4, align 4
  %28 = sext i32 %27 to i64
  %29 = getelementptr inbounds [100 x [150 x i32]], [100 x [150 x i32]]* %2, i64 0, i64 %28
  %30 = load i32, i32* %3, align 4
  %31 = sext i32 %30 to i64
  %32 = getelementptr inbounds [150 x i32], [150 x i32]* %29, i64 0, i64 %31
  %33 = load i32, i32* %32, align 4
  %34 = icmp eq i32 %33, 0
  br i1 %34, label %35, label %36

35:                                               ; preds = %26
  br label %40

36:                                               ; preds = %26
  br label %37

37:                                               ; preds = %36
  %38 = load i32, i32* %3, align 4
  %39 = add nsw i32 %38, 1
  store i32 %39, i32* %3, align 4
  br label %11

40:                                               ; preds = %35, %25
  %41 = load i32, i32* %4, align 4
  %42 = sext i32 %41 to i64
  %43 = getelementptr inbounds [100 x [150 x i32]], [100 x [150 x i32]]* %2, i64 0, i64 %42
  %44 = getelementptr inbounds [150 x i32], [150 x i32]* %43, i64 0, i64 0
  %45 = load i32, i32* %44, align 8
  %46 = icmp eq i32 %45, -1
  br i1 %46, label %47, label %48

47:                                               ; preds = %40
  br label %56

48:                                               ; preds = %40
  %49 = load i32, i32* %3, align 4
  %50 = load i32, i32* %4, align 4
  %51 = sext i32 %50 to i64
  %52 = getelementptr inbounds [100 x i32], [100 x i32]* %6, i64 0, i64 %51
  store i32 %49, i32* %52, align 4
  br label %53

53:                                               ; preds = %48
  %54 = load i32, i32* %4, align 4
  %55 = add nsw i32 %54, 1
  store i32 %55, i32* %4, align 4
  br label %10

56:                                               ; preds = %47
  %57 = load i32, i32* %4, align 4
  store i32 %57, i32* %5, align 4
  %58 = bitcast [100 x i32]* %9 to i8*
  call void @llvm.memset.p0i8.i64(i8* align 16 %58, i8 0, i64 400, i1 false)
  store i32 0, i32* %4, align 4
  br label %59

59:                                               ; preds = %169, %56
  %60 = load i32, i32* %4, align 4
  %61 = load i32, i32* %5, align 4
  %62 = icmp slt i32 %60, %61
  br i1 %62, label %63, label %172

63:                                               ; preds = %59
  store i32 0, i32* %3, align 4
  br label %64

64:                                               ; preds = %160, %63
  %65 = load i32, i32* %3, align 4
  %66 = load i32, i32* %4, align 4
  %67 = sext i32 %66 to i64
  %68 = getelementptr inbounds [100 x i32], [100 x i32]* %6, i64 0, i64 %67
  %69 = load i32, i32* %68, align 4
  %70 = icmp slt i32 %65, %69
  br i1 %70, label %71, label %163

71:                                               ; preds = %64
  %72 = load i32, i32* %3, align 4
  store i32 %72, i32* %7, align 4
  %73 = load i32, i32* %7, align 4
  store i32 %73, i32* %8, align 4
  br label %74

74:                                               ; preds = %156, %71
  %75 = load i32, i32* %8, align 4
  %76 = load i32, i32* %4, align 4
  %77 = sext i32 %76 to i64
  %78 = getelementptr inbounds [100 x i32], [100 x i32]* %6, i64 0, i64 %77
  %79 = load i32, i32* %78, align 4
  %80 = icmp slt i32 %75, %79
  br i1 %80, label %81, label %159

81:                                               ; preds = %74
  %82 = load i32, i32* %4, align 4
  %83 = sext i32 %82 to i64
  %84 = getelementptr inbounds [100 x [150 x i32]], [100 x [150 x i32]]* %2, i64 0, i64 %83
  %85 = load i32, i32* %8, align 4
  %86 = sext i32 %85 to i64
  %87 = getelementptr inbounds [150 x i32], [150 x i32]* %84, i64 0, i64 %86
  %88 = load i32, i32* %87, align 4
  %89 = load i32, i32* %4, align 4
  %90 = sext i32 %89 to i64
  %91 = getelementptr inbounds [100 x [150 x i32]], [100 x [150 x i32]]* %2, i64 0, i64 %90
  %92 = load i32, i32* %7, align 4
  %93 = sext i32 %92 to i64
  %94 = getelementptr inbounds [150 x i32], [150 x i32]* %91, i64 0, i64 %93
  %95 = load i32, i32* %94, align 4
  %96 = srem i32 %88, %95
  %97 = icmp eq i32 %96, 0
  br i1 %97, label %98, label %115

98:                                               ; preds = %81
  %99 = load i32, i32* %4, align 4
  %100 = sext i32 %99 to i64
  %101 = getelementptr inbounds [100 x [150 x i32]], [100 x [150 x i32]]* %2, i64 0, i64 %100
  %102 = load i32, i32* %8, align 4
  %103 = sext i32 %102 to i64
  %104 = getelementptr inbounds [150 x i32], [150 x i32]* %101, i64 0, i64 %103
  %105 = load i32, i32* %104, align 4
  %106 = load i32, i32* %4, align 4
  %107 = sext i32 %106 to i64
  %108 = getelementptr inbounds [100 x [150 x i32]], [100 x [150 x i32]]* %2, i64 0, i64 %107
  %109 = load i32, i32* %7, align 4
  %110 = sext i32 %109 to i64
  %111 = getelementptr inbounds [150 x i32], [150 x i32]* %108, i64 0, i64 %110
  %112 = load i32, i32* %111, align 4
  %113 = sdiv i32 %105, %112
  %114 = icmp eq i32 %113, 2
  br i1 %114, label %149, label %115

115:                                              ; preds = %98, %81
  %116 = load i32, i32* %4, align 4
  %117 = sext i32 %116 to i64
  %118 = getelementptr inbounds [100 x [150 x i32]], [100 x [150 x i32]]* %2, i64 0, i64 %117
  %119 = load i32, i32* %7, align 4
  %120 = sext i32 %119 to i64
  %121 = getelementptr inbounds [150 x i32], [150 x i32]* %118, i64 0, i64 %120
  %122 = load i32, i32* %121, align 4
  %123 = load i32, i32* %4, align 4
  %124 = sext i32 %123 to i64
  %125 = getelementptr inbounds [100 x [150 x i32]], [100 x [150 x i32]]* %2, i64 0, i64 %124
  %126 = load i32, i32* %8, align 4
  %127 = sext i32 %126 to i64
  %128 = getelementptr inbounds [150 x i32], [150 x i32]* %125, i64 0, i64 %127
  %129 = load i32, i32* %128, align 4
  %130 = sdiv i32 %122, %129
  %131 = icmp eq i32 %130, 2
  br i1 %131, label %132, label %155

132:                                              ; preds = %115
  %133 = load i32, i32* %4, align 4
  %134 = sext i32 %133 to i64
  %135 = getelementptr inbounds [100 x [150 x i32]], [100 x [150 x i32]]* %2, i64 0, i64 %134
  %136 = load i32, i32* %7, align 4
  %137 = sext i32 %136 to i64
  %138 = getelementptr inbounds [150 x i32], [150 x i32]* %135, i64 0, i64 %137
  %139 = load i32, i32* %138, align 4
  %140 = load i32, i32* %4, align 4
  %141 = sext i32 %140 to i64
  %142 = getelementptr inbounds [100 x [150 x i32]], [100 x [150 x i32]]* %2, i64 0, i64 %141
  %143 = load i32, i32* %8, align 4
  %144 = sext i32 %143 to i64
  %145 = getelementptr inbounds [150 x i32], [150 x i32]* %142, i64 0, i64 %144
  %146 = load i32, i32* %145, align 4
  %147 = srem i32 %139, %146
  %148 = icmp eq i32 %147, 0
  br i1 %148, label %149, label %155

149:                                              ; preds = %132, %98
  %150 = load i32, i32* %4, align 4
  %151 = sext i32 %150 to i64
  %152 = getelementptr inbounds [100 x i32], [100 x i32]* %9, i64 0, i64 %151
  %153 = load i32, i32* %152, align 4
  %154 = add nsw i32 %153, 1
  store i32 %154, i32* %152, align 4
  br label %155

155:                                              ; preds = %149, %132, %115
  br label %156

156:                                              ; preds = %155
  %157 = load i32, i32* %8, align 4
  %158 = add nsw i32 %157, 1
  store i32 %158, i32* %8, align 4
  br label %74

159:                                              ; preds = %74
  br label %160

160:                                              ; preds = %159
  %161 = load i32, i32* %3, align 4
  %162 = add nsw i32 %161, 1
  store i32 %162, i32* %3, align 4
  br label %64

163:                                              ; preds = %64
  %164 = load i32, i32* %4, align 4
  %165 = sext i32 %164 to i64
  %166 = getelementptr inbounds [100 x i32], [100 x i32]* %9, i64 0, i64 %165
  %167 = load i32, i32* %166, align 4
  %168 = call i32 (i8*, ...) @printf(i8* getelementptr inbounds ([4 x i8], [4 x i8]* @.str.1, i64 0, i64 0), i32 %167)
  br label %169

169:                                              ; preds = %163
  %170 = load i32, i32* %4, align 4
  %171 = add nsw i32 %170, 1
  store i32 %171, i32* %4, align 4
  br label %59

172:                                              ; preds = %59
  ret i32 1
}

declare dso_local i32 @__isoc99_scanf(i8*, ...) #1

; Function Attrs: argmemonly nounwind willreturn
declare void @llvm.memset.p0i8.i64(i8* nocapture writeonly, i8, i64, i1 immarg) #2

declare dso_local i32 @printf(i8*, ...) #1


!llvm.module.flags = !{!0}
!llvm.ident = !{!1}

!0 = !{i32 1, !"wchar_size", i32 4}
!1 = !{!"clang version 10.0.0-4ubuntu1 "}
